target datalayout = "e-m:e-p270:32:32-p271:32:32-p272:64:64-i64:64-i128:128-f80:128-n8:16:32:64-S128"
target triple = "x86_64-unknown-linux-gnu"

%"class.icu_75::UnicodeString" = type { %"class.icu_75::Replaceable", %"union.icu_75::UnicodeString::StackBufferOrFields" }
%"class.icu_75::Replaceable" = type { %"class.icu_75::UObject" }
%"class.icu_75::UObject" = type { ptr }
%"union.icu_75::UnicodeString::StackBufferOrFields" = type { %struct.anon.0, [32 x i8] }
%struct.anon.0 = type { i16, i32, i32, ptr }
%struct.anon = type { i16, [27 x i16] }

; Function Attrs: mustprogress nounwind uwtable
define linkonce_odr noundef i32 @_ZNK6icu_7513UnicodeString14getShortLengthEv(ptr noundef nonnull align 8 dereferenceable(64) %this) #0 comdat align 2 {
entry:
  %this.addr = alloca ptr, align 8
  store ptr %this, ptr %this.addr, align 8
  %this1 = load ptr, ptr %this.addr, align 8
  %fUnion = getelementptr inbounds %"class.icu_75::UnicodeString", ptr %this1, i32 0, i32 1
  %fLengthAndFlags = getelementptr inbounds %struct.anon.0, ptr %fUnion, i32 0, i32 0
  %0 = load i16, ptr %fLengthAndFlags, align 8
  %conv = sext i16 %0 to i32
  %shr = ashr i32 %conv, 5
  ret i32 %shr
}

; Function Attrs: mustprogress nounwind uwtable
define linkonce_odr noundef signext i8 @_ZNK6icu_7513UnicodeString14hasShortLengthEv(ptr noundef nonnull align 8 dereferenceable(64) %this) #0 comdat align 2 {
entry:
  %this.addr = alloca ptr, align 8
  store ptr %this, ptr %this.addr, align 8
  %this1 = load ptr, ptr %this.addr, align 8
  %fUnion = getelementptr inbounds %"class.icu_75::UnicodeString", ptr %this1, i32 0, i32 1
  %fLengthAndFlags = getelementptr inbounds %struct.anon.0, ptr %fUnion, i32 0, i32 0
  %0 = load i16, ptr %fLengthAndFlags, align 8
  %conv = sext i16 %0 to i32
  %cmp = icmp sge i32 %conv, 0
  %conv2 = zext i1 %cmp to i8
  ret i8 %conv2
}

; Function Attrs: mustprogress uwtable
define linkonce_odr noundef i32 @_ZNK6icu_7513UnicodeString6lengthEv(ptr noundef nonnull align 8 dereferenceable(64) %this) #3 comdat align 2 {
entry:
  %this.addr = alloca ptr, align 8
  store ptr %this, ptr %this.addr, align 8
  %this1 = load ptr, ptr %this.addr, align 8
  %call = call noundef signext i8 @_ZNK6icu_7513UnicodeString14hasShortLengthEv(ptr noundef nonnull align 8 dereferenceable(64) %this1)
  %tobool = icmp ne i8 %call, 0
  br i1 %tobool, label %cond.true, label %cond.false

cond.true:                                        ; preds = %entry
  %call2 = call noundef i32 @_ZNK6icu_7513UnicodeString14getShortLengthEv(ptr noundef nonnull align 8 dereferenceable(64) %this1)
  br label %cond.end

cond.false:                                       ; preds = %entry
  %fUnion = getelementptr inbounds %"class.icu_75::UnicodeString", ptr %this1, i32 0, i32 1
  %fLength = getelementptr inbounds %struct.anon.0, ptr %fUnion, i32 0, i32 1
  %0 = load i32, ptr %fLength, align 4
  br label %cond.end

cond.end:                                         ; preds = %cond.false, %cond.true
  %cond = phi i32 [ %call2, %cond.true ], [ %0, %cond.false ]
  ret i32 %cond
}

; Function Attrs: mustprogress nounwind uwtable
define linkonce_odr noundef ptr @_ZNK6icu_7513UnicodeString13getArrayStartEv(ptr noundef nonnull align 8 dereferenceable(64) %this) #0 comdat align 2 {
entry:
  %this.addr = alloca ptr, align 8
  store ptr %this, ptr %this.addr, align 8
  %this1 = load ptr, ptr %this.addr, align 8
  %fUnion = getelementptr inbounds %"class.icu_75::UnicodeString", ptr %this1, i32 0, i32 1
  %fLengthAndFlags = getelementptr inbounds %struct.anon.0, ptr %fUnion, i32 0, i32 0
  %0 = load i16, ptr %fLengthAndFlags, align 8
  %conv = sext i16 %0 to i32
  %and = and i32 %conv, 2
  %tobool = icmp ne i32 %and, 0
  br i1 %tobool, label %cond.true, label %cond.false

cond.true:                                        ; preds = %entry
  %fUnion2 = getelementptr inbounds %"class.icu_75::UnicodeString", ptr %this1, i32 0, i32 1
  %fBuffer = getelementptr inbounds %struct.anon, ptr %fUnion2, i32 0, i32 1
  %arraydecay = getelementptr inbounds [27 x i16], ptr %fBuffer, i64 0, i64 0
  br label %cond.end

cond.false:                                       ; preds = %entry
  %fUnion3 = getelementptr inbounds %"class.icu_75::UnicodeString", ptr %this1, i32 0, i32 1
  %fArray = getelementptr inbounds %struct.anon.0, ptr %fUnion3, i32 0, i32 3
  %1 = load ptr, ptr %fArray, align 8
  br label %cond.end

cond.end:                                         ; preds = %cond.false, %cond.true
  %cond = phi ptr [ %arraydecay, %cond.true ], [ %1, %cond.false ]
  ret ptr %cond
}

; Function Attrs: mustprogress uwtable
define linkonce_odr void @_ZNK6icu_7513UnicodeString10pinIndicesERiS1_(ptr noundef nonnull align 8 dereferenceable(64) %this, ptr noundef nonnull align 4 dereferenceable(4) %start, ptr noundef nonnull align 4 dereferenceable(4) %_length) #3 comdat align 2 {
entry:
  %this.addr = alloca ptr, align 8
  %start.addr = alloca ptr, align 8
  %_length.addr = alloca ptr, align 8
  %len = alloca i32, align 4
  store ptr %this, ptr %this.addr, align 8
  store ptr %start, ptr %start.addr, align 8
  store ptr %_length, ptr %_length.addr, align 8
  %this1 = load ptr, ptr %this.addr, align 8
  %call = call noundef i32 @_ZNK6icu_7513UnicodeString6lengthEv(ptr noundef nonnull align 8 dereferenceable(64) %this1)
  store i32 %call, ptr %len, align 4
  %0 = load ptr, ptr %start.addr, align 8
  %1 = load i32, ptr %0, align 4
  %cmp = icmp slt i32 %1, 0
  br i1 %cmp, label %if.then, label %if.else

if.then:                                          ; preds = %entry
  %2 = load ptr, ptr %start.addr, align 8
  store i32 0, ptr %2, align 4
  br label %if.end4

if.else:                                          ; preds = %entry
  %3 = load ptr, ptr %start.addr, align 8
  %4 = load i32, ptr %3, align 4
  %5 = load i32, ptr %len, align 4
  %cmp2 = icmp sgt i32 %4, %5
  br i1 %cmp2, label %if.then3, label %if.end

if.then3:                                         ; preds = %if.else
  %6 = load i32, ptr %len, align 4
  %7 = load ptr, ptr %start.addr, align 8
  store i32 %6, ptr %7, align 4
  br label %if.end

if.end:                                           ; preds = %if.then3, %if.else
  br label %if.end4

if.end4:                                          ; preds = %if.end, %if.then
  %8 = load ptr, ptr %_length.addr, align 8
  %9 = load i32, ptr %8, align 4
  %cmp5 = icmp slt i32 %9, 0
  br i1 %cmp5, label %if.then6, label %if.else7

if.then6:                                         ; preds = %if.end4
  %10 = load ptr, ptr %_length.addr, align 8
  store i32 0, ptr %10, align 4
  br label %if.end12

if.else7:                                         ; preds = %if.end4
  %11 = load ptr, ptr %_length.addr, align 8
  %12 = load i32, ptr %11, align 4
  %13 = load i32, ptr %len, align 4
  %14 = load ptr, ptr %start.addr, align 8
  %15 = load i32, ptr %14, align 4
  %sub = sub nsw i32 %13, %15
  %cmp8 = icmp sgt i32 %12, %sub
  br i1 %cmp8, label %if.then9, label %if.end11

if.then9:                                         ; preds = %if.else7
  %16 = load i32, ptr %len, align 4
  %17 = load ptr, ptr %start.addr, align 8
  %18 = load i32, ptr %17, align 4
  %sub10 = sub nsw i32 %16, %18
  %19 = load ptr, ptr %_length.addr, align 8
  store i32 %sub10, ptr %19, align 4
  br label %if.end11

if.end11:                                         ; preds = %if.then9, %if.else7
  br label %if.end12

if.end12:                                         ; preds = %if.end11, %if.then6
  ret void
}

; Function Attrs: mustprogress nounwind uwtable
define linkonce_odr noundef signext i8 @_ZNK6icu_7513UnicodeString7isBogusEv(ptr noundef nonnull align 8 dereferenceable(64) %this) #0 comdat align 2 {
entry:
  %this.addr = alloca ptr, align 8
  store ptr %this, ptr %this.addr, align 8
  %this1 = load ptr, ptr %this.addr, align 8
  %fUnion = getelementptr inbounds %"class.icu_75::UnicodeString", ptr %this1, i32 0, i32 1
  %fLengthAndFlags = getelementptr inbounds %struct.anon.0, ptr %fUnion, i32 0, i32 0
  %0 = load i16, ptr %fLengthAndFlags, align 8
  %conv = sext i16 %0 to i32
  %and = and i32 %conv, 1
  %conv2 = trunc i32 %and to i8
  ret i8 %conv2
}

; Function Attrs: mustprogress uwtable
define noundef signext i8 @_ZNK6icu_7513UnicodeString9doCompareEiiPKDsii(ptr noundef nonnull align 8 dereferenceable(64) %this, i32 noundef %start, i32 noundef %length, ptr noundef %srcChars, i32 noundef %srcStart, i32 noundef %srcLength) #3 align 2 {
entry:
  %retval = alloca i8, align 1
  %this.addr = alloca ptr, align 8
  %start.addr = alloca i32, align 4
  %length.addr = alloca i32, align 4
  %srcChars.addr = alloca ptr, align 8
  %srcStart.addr = alloca i32, align 4
  %srcLength.addr = alloca i32, align 4
  %chars = alloca ptr, align 8
  %minLength = alloca i32, align 4
  %lengthResult = alloca i8, align 1
  %result = alloca i32, align 4
  store ptr %this, ptr %this.addr, align 8
  store i32 %start, ptr %start.addr, align 4
  store i32 %length, ptr %length.addr, align 4
  store ptr %srcChars, ptr %srcChars.addr, align 8
  store i32 %srcStart, ptr %srcStart.addr, align 4
  store i32 %srcLength, ptr %srcLength.addr, align 4
  %this1 = load ptr, ptr %this.addr, align 8
  %call = call noundef signext i8 @_ZNK6icu_7513UnicodeString7isBogusEv(ptr noundef nonnull align 8 dereferenceable(64) %this1)
  %tobool = icmp ne i8 %call, 0
  br i1 %tobool, label %if.then, label %if.end

if.then:                                          ; preds = %entry
  store i8 -1, ptr %retval, align 1
  br label %return

if.end:                                           ; preds = %entry
  call void @_ZNK6icu_7513UnicodeString10pinIndicesERiS1_(ptr noundef nonnull align 8 dereferenceable(64) %this1, ptr noundef nonnull align 4 dereferenceable(4) %start.addr, ptr noundef nonnull align 4 dereferenceable(4) %length.addr)
  %0 = load ptr, ptr %srcChars.addr, align 8
  %cmp = icmp eq ptr %0, null
  br i1 %cmp, label %if.then2, label %if.end4

if.then2:                                         ; preds = %if.end
  %1 = load i32, ptr %length.addr, align 4
  %cmp3 = icmp eq i32 %1, 0
  %cond = select i1 %cmp3, i32 0, i32 1
  %conv = trunc i32 %cond to i8
  store i8 %conv, ptr %retval, align 1
  br label %return

if.end4:                                          ; preds = %if.end
  %call5 = call noundef ptr @_ZNK6icu_7513UnicodeString13getArrayStartEv(ptr noundef nonnull align 8 dereferenceable(64) %this1)
  store ptr %call5, ptr %chars, align 8
  %2 = load i32, ptr %start.addr, align 4
  %3 = load ptr, ptr %chars, align 8
  %idx.ext = sext i32 %2 to i64
  %add.ptr = getelementptr inbounds i16, ptr %3, i64 %idx.ext
  store ptr %add.ptr, ptr %chars, align 8
  %4 = load i32, ptr %srcStart.addr, align 4
  %5 = load ptr, ptr %srcChars.addr, align 8
  %idx.ext6 = sext i32 %4 to i64
  %add.ptr7 = getelementptr inbounds i16, ptr %5, i64 %idx.ext6
  store ptr %add.ptr7, ptr %srcChars.addr, align 8
  %6 = load i32, ptr %srcLength.addr, align 4
  %cmp8 = icmp slt i32 %6, 0
  br i1 %cmp8, label %if.then9, label %if.end13

if.then9:                                         ; preds = %if.end4
  %7 = load ptr, ptr %srcChars.addr, align 8
  %8 = load i32, ptr %srcStart.addr, align 4
  %idx.ext10 = sext i32 %8 to i64
  %add.ptr11 = getelementptr inbounds i16, ptr %7, i64 %idx.ext10
  %call12 = call i32 @u_strlen_75(ptr noundef %add.ptr11)
  store i32 %call12, ptr %srcLength.addr, align 4
  br label %if.end13

if.end13:                                         ; preds = %if.then9, %if.end4
  %9 = load i32, ptr %length.addr, align 4
  %10 = load i32, ptr %srcLength.addr, align 4
  %cmp14 = icmp ne i32 %9, %10
  br i1 %cmp14, label %if.then15, label %if.else19

if.then15:                                        ; preds = %if.end13
  %11 = load i32, ptr %length.addr, align 4
  %12 = load i32, ptr %srcLength.addr, align 4
  %cmp16 = icmp slt i32 %11, %12
  br i1 %cmp16, label %if.then17, label %if.else

if.then17:                                        ; preds = %if.then15
  %13 = load i32, ptr %length.addr, align 4
  store i32 %13, ptr %minLength, align 4
  store i8 -1, ptr %lengthResult, align 1
  br label %if.end18

if.else:                                          ; preds = %if.then15
  %14 = load i32, ptr %srcLength.addr, align 4
  store i32 %14, ptr %minLength, align 4
  store i8 1, ptr %lengthResult, align 1
  br label %if.end18

if.end18:                                         ; preds = %if.else, %if.then17
  br label %if.end20

if.else19:                                        ; preds = %if.end13
  %15 = load i32, ptr %length.addr, align 4
  store i32 %15, ptr %minLength, align 4
  store i8 0, ptr %lengthResult, align 1
  br label %if.end20

if.end20:                                         ; preds = %if.else19, %if.end18
  %16 = load i32, ptr %minLength, align 4
  %cmp21 = icmp sgt i32 %16, 0
  br i1 %cmp21, label %land.lhs.true, label %if.end32

land.lhs.true:                                    ; preds = %if.end20
  %17 = load ptr, ptr %chars, align 8
  %18 = load ptr, ptr %srcChars.addr, align 8
  %cmp22 = icmp ne ptr %17, %18
  br i1 %cmp22, label %if.then23, label %if.end32

if.then23:                                        ; preds = %land.lhs.true
  br label %do.body

do.body:                                          ; preds = %do.cond, %if.then23
  %19 = load ptr, ptr %chars, align 8
  %incdec.ptr = getelementptr inbounds i16, ptr %19, i32 1
  store ptr %incdec.ptr, ptr %chars, align 8
  %20 = load i16, ptr %19, align 2
  %conv24 = zext i16 %20 to i32
  %21 = load ptr, ptr %srcChars.addr, align 8
  %incdec.ptr25 = getelementptr inbounds i16, ptr %21, i32 1
  store ptr %incdec.ptr25, ptr %srcChars.addr, align 8
  %22 = load i16, ptr %21, align 2
  %conv26 = zext i16 %22 to i32
  %sub = sub nsw i32 %conv24, %conv26
  store i32 %sub, ptr %result, align 4
  %23 = load i32, ptr %result, align 4
  %cmp27 = icmp ne i32 %23, 0
  br i1 %cmp27, label %if.then28, label %if.end30

if.then28:                                        ; preds = %do.body
  %24 = load i32, ptr %result, align 4
  %shr = ashr i32 %24, 15
  %or = or i32 %shr, 1
  %conv29 = trunc i32 %or to i8
  store i8 %conv29, ptr %retval, align 1
  br label %return

if.end30:                                         ; preds = %do.body
  br label %do.cond

do.cond:                                          ; preds = %if.end30
  %25 = load i32, ptr %minLength, align 4
  %dec = add nsw i32 %25, -1
  store i32 %dec, ptr %minLength, align 4
  %cmp31 = icmp sgt i32 %dec, 0
  br i1 %cmp31, label %do.body, label %do.end, !llvm.loop !11

do.end:                                           ; preds = %do.cond
  br label %if.end32

if.end32:                                         ; preds = %do.end, %land.lhs.true, %if.end20
  %26 = load i8, ptr %lengthResult, align 1
  store i8 %26, ptr %retval, align 1
  br label %return

return:                                           ; preds = %if.end32, %if.then28, %if.then2, %if.then
  %27 = load i8, ptr %retval, align 1
  ret i8 %27
}