; Function Attrs: mustprogress uwtable
define noundef signext i8 @_ZNK6icu_7513UnicodeString9doCompareEiiPKDsii(ptr noundef nonnull readonly align 8 dereferenceable(64) %this, i32 noundef %start, i32 noundef %length, ptr noundef %srcChars, i32 noundef %srcStart, i32 noundef %srcLength) local_unnamed_addr #5 align 2 {
entry:
  %fUnion.i = getelementptr inbounds i8, ptr %this, i64 8
  %0 = load i16, ptr %fUnion.i, align 8
  %conv2.i19 = and i16 %0, 1
  %tobool.not = icmp eq i16 %conv2.i19, 0
  br i1 %tobool.not, label %if.end, label %return

if.end:                                           ; preds = %entry
  %cmp.i.i.i = icmp slt i16 %0, 0
  %1 = ashr i16 %0, 5
  %shr.i.i.i = sext i16 %1 to i32
  %fLength.i.i = getelementptr inbounds i8, ptr %this, i64 12
  %2 = load i32, ptr %fLength.i.i, align 4
  %cond.i.i = select i1 %cmp.i.i.i, i32 %2, i32 %shr.i.i.i
  %cmp.i = icmp slt i32 %start, 0
  %spec.select17 = tail call i32 @llvm.smin.i32(i32 %cond.i.i, i32 %start)
  %3 = select i1 %cmp.i, i32 0, i32 %spec.select17
  %cmp5.i = icmp slt i32 %length, 0
  %sub.i = sub nsw i32 %cond.i.i, %3
  %spec.select18 = tail call i32 @llvm.smin.i32(i32 %sub.i, i32 %length)
  %length.addr.0 = select i1 %cmp5.i, i32 0, i32 %spec.select18
  %cmp = icmp eq ptr %srcChars, null
  br i1 %cmp, label %if.then2, label %if.end4

if.then2:                                         ; preds = %if.end
  %cmp3 = icmp ne i32 %length.addr.0, 0
  %conv = zext i1 %cmp3 to i8
  br label %return

if.end4:                                          ; preds = %if.end
  %4 = and i16 %0, 2
  %tobool.not.i = icmp eq i16 %4, 0
  %fBuffer.i = getelementptr inbounds i8, ptr %this, i64 10
  %fArray.i = getelementptr inbounds i8, ptr %this, i64 24
  %5 = load ptr, ptr %fArray.i, align 8
  %cond.i = select i1 %tobool.not.i, ptr %5, ptr %fBuffer.i
  %idx.ext = sext i32 %3 to i64
  %add.ptr = getelementptr inbounds i16, ptr %cond.i, i64 %idx.ext
  %idx.ext6 = sext i32 %srcStart to i64
  %add.ptr7 = getelementptr inbounds i16, ptr %srcChars, i64 %idx.ext6
  %cmp8 = icmp slt i32 %srcLength, 0
  br i1 %cmp8, label %if.then9, label %if.end13

if.then9:                                         ; preds = %if.end4
  %add.ptr11 = getelementptr inbounds i16, ptr %add.ptr7, i64 %idx.ext6
  %call12 = tail call i32 @u_strlen_75(ptr noundef nonnull %add.ptr11)
  br label %if.end13

if.end13:                                         ; preds = %if.then9, %if.end4
  %srcLength.addr.0 = phi i32 [ %call12, %if.then9 ], [ %srcLength, %if.end4 ]
  %cmp14.not = icmp eq i32 %length.addr.0, %srcLength.addr.0
  %cmp16 = icmp slt i32 %length.addr.0, %srcLength.addr.0
  %.srcLength.addr.0 = tail call i32 @llvm.smin.i32(i32 %length.addr.0, i32 %srcLength.addr.0)
  %. = select i1 %cmp16, i8 -1, i8 1
  %lengthResult.0 = select i1 %cmp14.not, i8 0, i8 %.
  %cmp21 = icmp slt i32 %.srcLength.addr.0, 1
  %cmp22.not = icmp eq ptr %add.ptr, %add.ptr7
  %or.cond = select i1 %cmp21, i1 true, i1 %cmp22.not
  br i1 %or.cond, label %return, label %do.body

do.body:                                          ; preds = %if.end13, %do.cond
  %srcChars.addr.0 = phi ptr [ %incdec.ptr25, %do.cond ], [ %add.ptr7, %if.end13 ]
  %chars.0 = phi ptr [ %incdec.ptr, %do.cond ], [ %add.ptr, %if.end13 ]
  %minLength.1 = phi i32 [ %dec, %do.cond ], [ %.srcLength.addr.0, %if.end13 ]
  %6 = load i16, ptr %chars.0, align 2
  %7 = load i16, ptr %srcChars.addr.0, align 2
  %cmp27.not = icmp eq i16 %6, %7
  br i1 %cmp27.not, label %do.cond, label %if.then28

if.then28:                                        ; preds = %do.body
  %conv26 = zext i16 %7 to i32
  %conv24 = zext i16 %6 to i32
  %sub = sub nsw i32 %conv24, %conv26
  %shr = ashr i32 %sub, 15
  %8 = trunc i32 %shr to i8
  %conv29 = or i8 %8, 1
  br label %return

do.cond:                                          ; preds = %do.body
  %incdec.ptr25 = getelementptr inbounds i8, ptr %srcChars.addr.0, i64 2
  %incdec.ptr = getelementptr inbounds i8, ptr %chars.0, i64 2
  %dec = add nsw i32 %minLength.1, -1
  %cmp31 = icmp sgt i32 %minLength.1, 1
  br i1 %cmp31, label %do.body, label %return, !llvm.loop !12

return:                                           ; preds = %do.cond, %if.end13, %entry, %if.then28, %if.then2
  %retval.0 = phi i8 [ %conv, %if.then2 ], [ %conv29, %if.then28 ], [ -1, %entry ], [ %lengthResult.0, %if.end13 ], [ %lengthResult.0, %do.cond ]
  ret i8 %retval.0
}